ARM GAS  C:\Users\Walaa\AppData\Local\Temp\cc2qO8k8.s 			page 1


   1              		.syntax unified
   2              		.cpu cortex-m3
   3              		.fpu softvfp
   4              		.eabi_attribute 20, 1
   5              		.eabi_attribute 21, 1
   6              		.eabi_attribute 23, 3
   7              		.eabi_attribute 24, 1
   8              		.eabi_attribute 25, 1
   9              		.eabi_attribute 26, 1
  10              		.eabi_attribute 30, 1
  11              		.eabi_attribute 34, 1
  12              		.eabi_attribute 18, 4
  13              		.thumb
  14              		.syntax unified
  15              		.file	"main.c"
  16              		.text
  17              	.Ltext0:
  18              		.cfi_sections	.debug_frame
  19              		.section	.text.byte_to_binary,"ax",%progbits
  20              		.align	2
  21              		.global	byte_to_binary
  22              		.thumb
  23              		.thumb_func
  24              		.type	byte_to_binary, %function
  25              	byte_to_binary:
  26              	.LFB63:
  27              		.file 1 "main.c"
   1:main.c        **** /* ========================================
   2:main.c        ****  *
   3:main.c        ****  * Copyright YOUR COMPANY, THE YEAR
   4:main.c        ****  * All Rights Reserved
   5:main.c        ****  * UNPUBLISHED, LICENSED SOFTWARE.
   6:main.c        ****  *
   7:main.c        ****  * CONFIDENTIAL AND PROPRIETARY INFORMATION
   8:main.c        ****  * WHICH IS THE PROPERTY OF your company.
   9:main.c        ****  *
  10:main.c        ****  * ========================================
  11:main.c        **** */
  12:main.c        **** #include <project.h>
  13:main.c        **** #include <string.h>
  14:main.c        **** #include <stdlib.h>
  15:main.c        **** #include <CyLib.h>
  16:main.c        **** 
  17:main.c        **** //#include <device.h>
  18:main.c        **** uint8 buffer[512];
  19:main.c        **** uint8 cmd, cmd_motornum, cmd_keywrd, cmd_sign, cmd_val;
  20:main.c        **** uint8 inst_byte_out, val_byte_out;
  21:main.c        **** uint16 length;
  22:main.c        **** int number, repeats = 0, num_lines, current_line_num;
  23:main.c        **** uint8 receiving, parsing;
  24:main.c        **** uint8 lines[512][10];
  25:main.c        **** int cmd_eval_val;
  26:main.c        **** uint8 state = 0;
  27:main.c        **** #define COMMAND 0
  28:main.c        **** #define ARG1    1
  29:main.c        **** #define KEYWORD 2
  30:main.c        **** #define ARG2    3
ARM GAS  C:\Users\Walaa\AppData\Local\Temp\cc2qO8k8.s 			page 2


  31:main.c        **** #define SND8051 4
  32:main.c        **** #define EVAL    5
  33:main.c        **** 
  34:main.c        **** ///////////////////////////////////////////////////////
  35:main.c        **** const char *byte_to_binary(int x)
  36:main.c        **** {
  28              		.loc 1 36 0
  29              		.cfi_startproc
  30              		@ args = 0, pretend = 0, frame = 0
  31              		@ frame_needed = 0, uses_anonymous_args = 0
  32              	.LVL0:
  33 0000 F8B5     		push	{r3, r4, r5, r6, r7, lr}
  34              		.cfi_def_cfa_offset 24
  35              		.cfi_offset 3, -24
  36              		.cfi_offset 4, -20
  37              		.cfi_offset 5, -16
  38              		.cfi_offset 6, -12
  39              		.cfi_offset 7, -8
  40              		.cfi_offset 14, -4
  41 0002 0746     		mov	r7, r0
  37:main.c        ****     static char b[9];
  38:main.c        ****     b[0] = '\0';
  42              		.loc 1 38 0
  43 0004 0022     		movs	r2, #0
  44 0006 0A4B     		ldr	r3, .L7
  45 0008 1A70     		strb	r2, [r3]
  46              	.LVL1:
  39:main.c        **** 
  40:main.c        ****     int z;
  41:main.c        ****     for (z = 128; z > 0; z >>= 1)
  47              		.loc 1 41 0
  48 000a 8024     		movs	r4, #128
  49 000c 0CE0     		b	.L2
  50              	.LVL2:
  51              	.L4:
  42:main.c        ****     {
  43:main.c        ****         strcat(b, ((x & z) == z) ? "1" : "0");
  52              		.loc 1 43 0
  53 000e 34EA0703 		bics	r3, r4, r7
  54 0012 01D1     		bne	.L5
  55 0014 074E     		ldr	r6, .L7+4
  56 0016 00E0     		b	.L3
  57              	.L5:
  58 0018 074E     		ldr	r6, .L7+8
  59              	.L3:
  60              		.loc 1 43 0 is_stmt 0 discriminator 4
  61 001a 054D     		ldr	r5, .L7
  62 001c 2846     		mov	r0, r5
  63 001e FFF7FEFF 		bl	strlen
  64              	.LVL3:
  65 0022 3388     		ldrh	r3, [r6]	@ unaligned
  66 0024 2B52     		strh	r3, [r5, r0]	@ unaligned
  41:main.c        ****     {
  67              		.loc 1 41 0 is_stmt 1 discriminator 4
  68 0026 6410     		asrs	r4, r4, #1
  69              	.LVL4:
  70              	.L2:
ARM GAS  C:\Users\Walaa\AppData\Local\Temp\cc2qO8k8.s 			page 3


  41:main.c        ****     {
  71              		.loc 1 41 0 is_stmt 0 discriminator 2
  72 0028 002C     		cmp	r4, #0
  73 002a F0DC     		bgt	.L4
  44:main.c        ****     }
  45:main.c        **** 
  46:main.c        ****     return b;
  47:main.c        **** }
  74              		.loc 1 47 0 is_stmt 1
  75 002c 0048     		ldr	r0, .L7
  76 002e F8BD     		pop	{r3, r4, r5, r6, r7, pc}
  77              	.LVL5:
  78              	.L8:
  79              		.align	2
  80              	.L7:
  81 0030 00000000 		.word	.LANCHOR0
  82 0034 00000000 		.word	.LC0
  83 0038 04000000 		.word	.LC1
  84              		.cfi_endproc
  85              	.LFE63:
  86              		.size	byte_to_binary, .-byte_to_binary
  87              		.section	.text.RX_INT,"ax",%progbits
  88              		.align	2
  89              		.global	RX_INT
  90              		.thumb
  91              		.thumb_func
  92              		.type	RX_INT, %function
  93              	RX_INT:
  94              	.LFB64:
  48:main.c        **** ////////////////////////////////////////////////////////
  49:main.c        **** 
  50:main.c        **** //serial receive ISR
  51:main.c        **** CY_ISR(RX_INT){
  95              		.loc 1 51 0
  96              		.cfi_startproc
  97              		@ args = 0, pretend = 0, frame = 512
  98              		@ frame_needed = 0, uses_anonymous_args = 0
  99 0000 70B5     		push	{r4, r5, r6, lr}
 100              		.cfi_def_cfa_offset 16
 101              		.cfi_offset 4, -16
 102              		.cfi_offset 5, -12
 103              		.cfi_offset 6, -8
 104              		.cfi_offset 14, -4
 105 0002 ADF5007D 		sub	sp, sp, #512
 106              		.cfi_def_cfa_offset 528
  52:main.c        ****     int RxData = UART_ReadRxData();
 107              		.loc 1 52 0
 108 0006 FFF7FEFF 		bl	UART_ReadRxData
 109              	.LVL6:
 110 000a 0646     		mov	r6, r0
 111 000c 0546     		mov	r5, r0
 112              	.LVL7:
 113              	.LBB2:
  53:main.c        ****     /*debug*/ for (int i=0;i<strlen(byte_to_binary(RxData));i++){LCD_PutChar(byte_to_binary(RxData)
 114              		.loc 1 53 0
 115 000e 0024     		movs	r4, #0
 116 0010 06E0     		b	.L10
ARM GAS  C:\Users\Walaa\AppData\Local\Temp\cc2qO8k8.s 			page 4


 117              	.LVL8:
 118              	.L11:
 119              		.loc 1 53 0 is_stmt 0 discriminator 3
 120 0012 2846     		mov	r0, r5
 121 0014 FFF7FEFF 		bl	byte_to_binary
 122              	.LVL9:
 123 0018 005D     		ldrb	r0, [r0, r4]	@ zero_extendqisi2
 124 001a FFF7FEFF 		bl	LCD_PutChar
 125              	.LVL10:
 126 001e 0134     		adds	r4, r4, #1
 127              	.LVL11:
 128              	.L10:
 129              		.loc 1 53 0 discriminator 1
 130 0020 2846     		mov	r0, r5
 131 0022 FFF7FEFF 		bl	byte_to_binary
 132              	.LVL12:
 133 0026 FFF7FEFF 		bl	strlen
 134              	.LVL13:
 135 002a A042     		cmp	r0, r4
 136 002c F1D8     		bhi	.L11
 137              	.LBE2:
  54:main.c        ****     //if we hear back from the R31JP, that means there is an error
  55:main.c        ****     //here, I am decoding the error code
  56:main.c        ****     uint8 errorMsg[512];
  57:main.c        ****     switch((int)RxData){
 138              		.loc 1 57 0 is_stmt 1
 139 002e 032E     		cmp	r6, #3
 140 0030 27D8     		bhi	.L12
 141 0032 DFE806F0 		tbb	[pc, r6]
 142              	.L14:
 143 0036 21       		.byte	(.L13-.L14)/2
 144 0037 17       		.byte	(.L15-.L14)/2
 145 0038 02       		.byte	(.L16-.L14)/2
 146 0039 0E       		.byte	(.L17-.L14)/2
 147              		.p2align 1
 148              	.L16:
 149              	.LBB3:
  58:main.c        ****     case 0b10: strcpy(errorMsg, "POSITION CONTROL UNAVAILABLE\n\r");
 150              		.loc 1 58 0
 151 003a 6C46     		mov	r4, sp
 152              	.LVL14:
 153 003c 164D     		ldr	r5, .L19
 154              	.LVL15:
 155 003e 0FCD     		ldmia	r5!, {r0, r1, r2, r3}
 156 0040 0FC4     		stmia	r4!, {r0, r1, r2, r3}
 157 0042 95E80F00 		ldmia	r5, {r0, r1, r2, r3}
 158 0046 07C4     		stmia	r4!, {r0, r1, r2}
 159 0048 24F8023B 		strh	r3, [r4], #2	@ movhi
 160 004c 1B0C     		lsrs	r3, r3, #16
 161 004e 2370     		strb	r3, [r4]
  59:main.c        ****         break;
 162              		.loc 1 59 0
 163 0050 17E0     		b	.L12
 164              	.LVL16:
 165              	.L17:
  60:main.c        ****     case 0b11: strcpy(errorMsg, "SPEED CONTROL UNAVAILABLE\n\r");
 166              		.loc 1 60 0
ARM GAS  C:\Users\Walaa\AppData\Local\Temp\cc2qO8k8.s 			page 5


 167 0052 6C46     		mov	r4, sp
 168              	.LVL17:
 169 0054 114D     		ldr	r5, .L19+4
 170              	.LVL18:
 171 0056 0FCD     		ldmia	r5!, {r0, r1, r2, r3}
 172 0058 0FC4     		stmia	r4!, {r0, r1, r2, r3}
 173 005a 95E80700 		ldmia	r5, {r0, r1, r2}
 174 005e 84E80700 		stmia	r4, {r0, r1, r2}
  61:main.c        ****         break;
 175              		.loc 1 61 0
 176 0062 0EE0     		b	.L12
 177              	.LVL19:
 178              	.L15:
  62:main.c        ****     case 0b01: strcpy(errorMsg, "NO SUCH MOTOR ERROR\n\r");
 179              		.loc 1 62 0
 180 0064 6C46     		mov	r4, sp
 181              	.LVL20:
 182 0066 0E4D     		ldr	r5, .L19+8
 183              	.LVL21:
 184 0068 0FCD     		ldmia	r5!, {r0, r1, r2, r3}
 185 006a 0FC4     		stmia	r4!, {r0, r1, r2, r3}
 186 006c 95E80300 		ldmia	r5, {r0, r1}
 187 0070 44F8040B 		str	r0, [r4], #4
 188 0074 2180     		strh	r1, [r4]	@ movhi
  63:main.c        ****         break;
 189              		.loc 1 63 0
 190 0076 04E0     		b	.L12
 191              	.LVL22:
 192              	.L13:
  64:main.c        ****     case 0b00: sprintf(errorMsg, "Success! data was delivered to the R31JP, %d", RxData);
 193              		.loc 1 64 0
 194 0078 3246     		mov	r2, r6
 195 007a 0A49     		ldr	r1, .L19+12
 196 007c 6846     		mov	r0, sp
 197 007e FFF7FEFF 		bl	sprintf
 198              	.LVL23:
 199              	.L12:
 200              	.LBE3:
  65:main.c        ****     }
  66:main.c        ****     //if (RxData == 0b010) strcpy(errorMsg, "received TWO!");
  67:main.c        ****     uint16 errLength = strlen(errorMsg);
 201              		.loc 1 67 0
 202 0082 6846     		mov	r0, sp
 203 0084 FFF7FEFF 		bl	strlen
 204              	.LVL24:
  68:main.c        ****     USB_LoadInEP(1, errorMsg, errLength); 
 205              		.loc 1 68 0
 206 0088 82B2     		uxth	r2, r0
 207 008a 6946     		mov	r1, sp
 208 008c 0120     		movs	r0, #1
 209              	.LVL25:
 210 008e FFF7FEFF 		bl	USB_LoadInEP
 211              	.LVL26:
  69:main.c        **** }
 212              		.loc 1 69 0
 213 0092 0DF5007D 		add	sp, sp, #512
 214              		.cfi_def_cfa_offset 16
ARM GAS  C:\Users\Walaa\AppData\Local\Temp\cc2qO8k8.s 			page 6


 215              		@ sp needed
 216 0096 70BD     		pop	{r4, r5, r6, pc}
 217              	.LVL27:
 218              	.L20:
 219              		.align	2
 220              	.L19:
 221 0098 08000000 		.word	.LC2
 222 009c 28000000 		.word	.LC3
 223 00a0 44000000 		.word	.LC4
 224 00a4 5C000000 		.word	.LC5
 225              		.cfi_endproc
 226              	.LFE64:
 227              		.size	RX_INT, .-RX_INT
 228              		.section	.text.main,"ax",%progbits
 229              		.align	2
 230              		.global	main
 231              		.thumb
 232              		.thumb_func
 233              		.type	main, %function
 234              	main:
 235              	.LFB65:
  70:main.c        **** 
  71:main.c        **** int main()
  72:main.c        **** {
 236              		.loc 1 72 0
 237              		.cfi_startproc
 238              		@ args = 0, pretend = 0, frame = 512
 239              		@ frame_needed = 0, uses_anonymous_args = 0
 240 0000 70B5     		push	{r4, r5, r6, lr}
 241              		.cfi_def_cfa_offset 16
 242              		.cfi_offset 4, -16
 243              		.cfi_offset 5, -12
 244              		.cfi_offset 6, -8
 245              		.cfi_offset 14, -4
 246 0002 ADF5007D 		sub	sp, sp, #512
 247              		.cfi_def_cfa_offset 528
  73:main.c        ****     CyGlobalIntEnable; /* Enable global interrupts. */
 248              		.loc 1 73 0
 249              		.syntax unified
 250              	@ 73 "main.c" 1
 251 0006 62B6     		CPSIE   i
 252              	@ 0 "" 2
  74:main.c        ****     
  75:main.c        ****     // SET UP SERIAL COMMUNICATION (WITH R31JP)
  76:main.c        ****     LCD_Start();					    // initialize lcd
 253              		.loc 1 76 0
 254              		.thumb
 255              		.syntax unified
 256 0008 FFF7FEFF 		bl	LCD_Start
 257              	.LVL28:
  77:main.c        **** 	LCD_ClearDisplay();
 258              		.loc 1 77 0
 259 000c 0120     		movs	r0, #1
 260 000e FFF7FEFF 		bl	LCD_WriteControl
 261              	.LVL29:
  78:main.c        ****     //CyGlobalIntEnable;
  79:main.c        ****     rx_int_StartEx(RX_INT);             // start RX interrupt (look for CY_ISR with RX_INT address)
ARM GAS  C:\Users\Walaa\AppData\Local\Temp\cc2qO8k8.s 			page 7


 262              		.loc 1 79 0
 263 0012 9C48     		ldr	r0, .L61
 264 0014 FFF7FEFF 		bl	rx_int_StartEx
 265              	.LVL30:
  80:main.c        ****                                         // for code that writes received bytes to LCD.
  81:main.c        ****     
  82:main.c        ****     UART_Start();                       // initialize UART
 266              		.loc 1 82 0
 267 0018 FFF7FEFF 		bl	UART_Start
 268              	.LVL31:
  83:main.c        ****     UART_ClearRxBuffer();
 269              		.loc 1 83 0
 270 001c FFF7FEFF 		bl	UART_ClearRxBuffer
 271              	.LVL32:
  84:main.c        ****     
  85:main.c        ****     // SET UP USB COMMUNICATION (WITH COMPUTER)
  86:main.c        ****     USB_Start(0, USB_3V_OPERATION); // Start the USB peripheral
 272              		.loc 1 86 0
 273 0020 0021     		movs	r1, #0
 274 0022 0846     		mov	r0, r1
 275 0024 FFF7FEFF 		bl	USB_Start
 276              	.LVL33:
 277              	.L22:
  87:main.c        ****     while(!USB_GetConfiguration()); // Wait until USB is configured
 278              		.loc 1 87 0 discriminator 1
 279 0028 FFF7FEFF 		bl	USB_GetConfiguration
 280              	.LVL34:
 281 002c 0028     		cmp	r0, #0
 282 002e FBD0     		beq	.L22
  88:main.c        ****     USB_EnableOutEP(2); // Enable our output endpoint (EP2);
 283              		.loc 1 88 0
 284 0030 0220     		movs	r0, #2
 285 0032 FFF7FEFF 		bl	USB_EnableOutEP
 286              	.LVL35:
 287              	.L58:
 288              	.LBB4:
  89:main.c        ****     
  90:main.c        ****     // LOOP ON THIS FOREVER
  91:main.c        ****     for(;;)
  92:main.c        ****     {
  93:main.c        ****         //strcpy(buffer,"");
  94:main.c        ****         parsing = 1;
 289              		.loc 1 94 0
 290 0036 0122     		movs	r2, #1
 291 0038 934B     		ldr	r3, .L61+4
 292 003a 1A70     		strb	r2, [r3]
  95:main.c        ****         /*TODO:: FIRST WE NEED TO SAVE*** all the lines into lines after receiving them via USB*/
  96:main.c        ****         if (!repeats || receiving){
 293              		.loc 1 96 0
 294 003c 934B     		ldr	r3, .L61+8
 295 003e DB68     		ldr	r3, [r3, #12]
 296 0040 13B1     		cbz	r3, .L23
 297              		.loc 1 96 0 is_stmt 0 discriminator 1
 298 0042 934B     		ldr	r3, .L61+12
 299 0044 1B78     		ldrb	r3, [r3]	@ zero_extendqisi2
 300 0046 0BB3     		cbz	r3, .L24
 301              	.L23:
ARM GAS  C:\Users\Walaa\AppData\Local\Temp\cc2qO8k8.s 			page 8


  97:main.c        ****             while(USB_GetEPState(2) == USB_OUT_BUFFER_EMPTY);   // Wait until we have data
 302              		.loc 1 97 0 is_stmt 1 discriminator 1
 303 0048 0220     		movs	r0, #2
 304 004a FFF7FEFF 		bl	USB_GetEPState
 305              	.LVL36:
 306 004e 0028     		cmp	r0, #0
 307 0050 FAD0     		beq	.L23
  98:main.c        ****             length = USB_GetEPCount(2);                         // Get the length of received data
 308              		.loc 1 98 0
 309 0052 0220     		movs	r0, #2
 310 0054 FFF7FEFF 		bl	USB_GetEPCount
 311              	.LVL37:
 312 0058 0246     		mov	r2, r0
 313 005a 8E4B     		ldr	r3, .L61+16
 314 005c 1880     		strh	r0, [r3]	@ movhi
  99:main.c        ****             USB_ReadOutEP(2, buffer, length);                   // Get the data
 315              		.loc 1 99 0
 316 005e 8E49     		ldr	r1, .L61+20
 317 0060 0220     		movs	r0, #2
 318 0062 FFF7FEFF 		bl	USB_ReadOutEP
 319              	.LVL38:
 320              	.L25:
 100:main.c        ****             
 101:main.c        ****             while(USB_GetEPState(1) != USB_IN_BUFFER_EMPTY);    // Wait until our IN EP is empty
 321              		.loc 1 101 0 discriminator 1
 322 0066 0120     		movs	r0, #1
 323 0068 FFF7FEFF 		bl	USB_GetEPState
 324              	.LVL39:
 325 006c 0128     		cmp	r0, #1
 326 006e FAD1     		bne	.L25
 102:main.c        ****             //if we are receiving the lines to be repeated, save the line
 103:main.c        ****             if (receiving) strcpy(lines[current_line_num], buffer);
 327              		.loc 1 103 0
 328 0070 874B     		ldr	r3, .L61+12
 329 0072 1B78     		ldrb	r3, [r3]	@ zero_extendqisi2
 330 0074 A3B1     		cbz	r3, .L26
 331              		.loc 1 103 0 is_stmt 0 discriminator 1
 332 0076 894B     		ldr	r3, .L61+24
 333 0078 1868     		ldr	r0, [r3]
 334 007a 00EB8000 		add	r0, r0, r0, lsl #2
 335 007e 8649     		ldr	r1, .L61+20
 336 0080 874B     		ldr	r3, .L61+28
 337 0082 03EB4000 		add	r0, r3, r0, lsl #1
 338 0086 FFF7FEFF 		bl	strcpy
 339              	.LVL40:
 340 008a 09E0     		b	.L26
 341              	.L24:
 104:main.c        ****         } else {
 105:main.c        ****             strcpy(buffer, lines[current_line_num]);
 342              		.loc 1 105 0 is_stmt 1
 343 008c 834B     		ldr	r3, .L61+24
 344 008e 1968     		ldr	r1, [r3]
 345 0090 01EB8101 		add	r1, r1, r1, lsl #2
 346 0094 824B     		ldr	r3, .L61+28
 347 0096 03EB4101 		add	r1, r3, r1, lsl #1
 348 009a 7F48     		ldr	r0, .L61+20
 349 009c FFF7FEFF 		bl	strcpy
ARM GAS  C:\Users\Walaa\AppData\Local\Temp\cc2qO8k8.s 			page 9


 350              	.LVL41:
 351              	.L26:
 106:main.c        ****         }
 107:main.c        ****         LCD_ClearDisplay();
 352              		.loc 1 107 0
 353 00a0 0120     		movs	r0, #1
 354 00a2 FFF7FEFF 		bl	LCD_WriteControl
 355              	.LVL42:
 108:main.c        ****         //*debug*/ for (int i=0;i<length-2;i++){LCD_PutChar(buffer[i]);}
 109:main.c        ****         uint8 line[512] = "";
 356              		.loc 1 109 0
 357 00a6 0021     		movs	r1, #0
 358 00a8 0091     		str	r1, [sp]
 359 00aa 4FF4FE72 		mov	r2, #508
 360 00ae 01A8     		add	r0, sp, #4
 361 00b0 FFF7FEFF 		bl	memset
 362              	.LVL43:
 110:main.c        ****         //strcpy(line, buffer);
 111:main.c        ****         char* word;
 112:main.c        ****         word = strtok(buffer, " \n\r");
 363              		.loc 1 112 0
 364 00b4 7B49     		ldr	r1, .L61+32
 365 00b6 7848     		ldr	r0, .L61+20
 366 00b8 FFF7FEFF 		bl	strtok
 367              	.LVL44:
 368 00bc 0546     		mov	r5, r0
 369              	.LVL45:
 113:main.c        ****         while (word != NULL && parsing){
 370              		.loc 1 113 0
 371 00be D3E0     		b	.L27
 372              	.L49:
 114:main.c        ****             switch(state){
 373              		.loc 1 114 0
 374 00c0 724B     		ldr	r3, .L61+8
 375 00c2 1B7C     		ldrb	r3, [r3, #16]	@ zero_extendqisi2
 376 00c4 032B     		cmp	r3, #3
 377 00c6 00F2CA80 		bhi	.L28
 378 00ca DFE803F0 		tbb	[pc, r3]
 379              	.L30:
 380 00ce 02       		.byte	(.L29-.L30)/2
 381 00cf 2E       		.byte	(.L31-.L30)/2
 382 00d0 56       		.byte	(.L32-.L30)/2
 383 00d1 93       		.byte	(.L33-.L30)/2
 384              		.p2align 1
 385              	.L29:
 115:main.c        ****             case COMMAND:
 116:main.c        ****                 state = ARG1;
 386              		.loc 1 116 0
 387 00d2 0122     		movs	r2, #1
 388 00d4 6D4B     		ldr	r3, .L61+8
 389 00d6 1A74     		strb	r2, [r3, #16]
 117:main.c        ****                 if      (strcmp(word, "motor") == 0)  cmd = 'm';
 390              		.loc 1 117 0
 391 00d8 7349     		ldr	r1, .L61+36
 392 00da 2846     		mov	r0, r5
 393              	.LVL46:
 394 00dc FFF7FEFF 		bl	strcmp
ARM GAS  C:\Users\Walaa\AppData\Local\Temp\cc2qO8k8.s 			page 10


 395              	.LVL47:
 396 00e0 18B9     		cbnz	r0, .L34
 397              		.loc 1 117 0 is_stmt 0 discriminator 1
 398 00e2 6D22     		movs	r2, #109
 399 00e4 714B     		ldr	r3, .L61+40
 400 00e6 1A70     		strb	r2, [r3]
 401 00e8 B9E0     		b	.L28
 402              	.L34:
 118:main.c        ****                 else if (strcmp(word, "repeat") == 0) cmd = 'r';
 403              		.loc 1 118 0 is_stmt 1
 404 00ea 7149     		ldr	r1, .L61+44
 405 00ec 2846     		mov	r0, r5
 406 00ee FFF7FEFF 		bl	strcmp
 407              	.LVL48:
 408 00f2 18B9     		cbnz	r0, .L35
 409              		.loc 1 118 0 is_stmt 0 discriminator 1
 410 00f4 7222     		movs	r2, #114
 411 00f6 6D4B     		ldr	r3, .L61+40
 412 00f8 1A70     		strb	r2, [r3]
 413 00fa B0E0     		b	.L28
 414              	.L35:
 119:main.c        ****                 else if (strcmp(word, "delay")  == 0) cmd = 'd';
 415              		.loc 1 119 0 is_stmt 1
 416 00fc 6D49     		ldr	r1, .L61+48
 417 00fe 2846     		mov	r0, r5
 418 0100 FFF7FEFF 		bl	strcmp
 419              	.LVL49:
 420 0104 18B9     		cbnz	r0, .L36
 421              		.loc 1 119 0 is_stmt 0 discriminator 1
 422 0106 6422     		movs	r2, #100
 423 0108 684B     		ldr	r3, .L61+40
 424 010a 1A70     		strb	r2, [r3]
 425 010c A7E0     		b	.L28
 426              	.L36:
 427              	.LBB5:
 120:main.c        ****                 else{
 121:main.c        ****                     state = COMMAND;
 428              		.loc 1 121 0 is_stmt 1
 429 010e 0026     		movs	r6, #0
 430 0110 5E4B     		ldr	r3, .L61+8
 431 0112 1E74     		strb	r6, [r3, #16]
 122:main.c        ****                     //strcpy(line, "Parse Error: UNKNOWN COMMAND");
 123:main.c        ****                     sprintf(line, "Parse Error: UNKNOWN COMMAND");
 432              		.loc 1 123 0
 433 0114 6C46     		mov	r4, sp
 434 0116 684D     		ldr	r5, .L61+52
 435              	.LVL50:
 436 0118 0FCD     		ldmia	r5!, {r0, r1, r2, r3}
 437 011a 0FC4     		stmia	r4!, {r0, r1, r2, r3}
 438 011c 95E80F00 		ldmia	r5, {r0, r1, r2, r3}
 439 0120 07C4     		stmia	r4!, {r0, r1, r2}
 440 0122 2370     		strb	r3, [r4]
 124:main.c        ****                     /*length = strlen(line);
 125:main.c        ****                     USB_LoadInEP(1, line, length);*/
 126:main.c        ****                     parsing = 0;
 441              		.loc 1 126 0
 442 0124 584B     		ldr	r3, .L61+4
ARM GAS  C:\Users\Walaa\AppData\Local\Temp\cc2qO8k8.s 			page 11


 443 0126 1E70     		strb	r6, [r3]
 444 0128 99E0     		b	.L28
 445              	.LVL51:
 446              	.L31:
 447              	.LBE5:
 448              	.LBB6:
 127:main.c        ****                 }
 128:main.c        ****                 break;
 129:main.c        ****             case ARG1:{
 130:main.c        ****                 int arg1 = atoi(word);
 449              		.loc 1 130 0
 450 012a 2846     		mov	r0, r5
 451              	.LVL52:
 452 012c FFF7FEFF 		bl	atoi
 453              	.LVL53:
 131:main.c        ****                 if (cmd == 'm' && arg1 != 0 && arg1 < 9){
 454              		.loc 1 131 0
 455 0130 5E4B     		ldr	r3, .L61+40
 456 0132 1B78     		ldrb	r3, [r3]	@ zero_extendqisi2
 457 0134 6D2B     		cmp	r3, #109
 458 0136 08D1     		bne	.L37
 459              		.loc 1 131 0 is_stmt 0 discriminator 1
 460 0138 38B1     		cbz	r0, .L37
 461              		.loc 1 131 0 discriminator 2
 462 013a 0828     		cmp	r0, #8
 463 013c 05DC     		bgt	.L37
 132:main.c        ****                     state = KEYWORD;
 464              		.loc 1 132 0 is_stmt 1
 465 013e 0222     		movs	r2, #2
 466 0140 524B     		ldr	r3, .L61+8
 467 0142 1A74     		strb	r2, [r3, #16]
 133:main.c        ****                     cmd_motornum = arg1;
 468              		.loc 1 133 0
 469 0144 5D4B     		ldr	r3, .L61+56
 470 0146 1870     		strb	r0, [r3]
 471 0148 89E0     		b	.L28
 472              	.L37:
 134:main.c        ****                 } else if (cmd == 'd' || cmd == 'r'){
 473              		.loc 1 134 0
 474 014a 642B     		cmp	r3, #100
 475 014c 01D0     		beq	.L38
 476              		.loc 1 134 0 is_stmt 0 discriminator 1
 477 014e 722B     		cmp	r3, #114
 478 0150 05D1     		bne	.L39
 479              	.L38:
 135:main.c        ****                     state = EVAL;
 480              		.loc 1 135 0 is_stmt 1
 481 0152 0522     		movs	r2, #5
 482 0154 4D4B     		ldr	r3, .L61+8
 483 0156 1A74     		strb	r2, [r3, #16]
 136:main.c        ****                     cmd_eval_val = arg1;
 484              		.loc 1 136 0
 485 0158 594B     		ldr	r3, .L61+60
 486 015a 1860     		str	r0, [r3]
 487 015c 7FE0     		b	.L28
 488              	.L39:
 137:main.c        ****                 }
ARM GAS  C:\Users\Walaa\AppData\Local\Temp\cc2qO8k8.s 			page 12


 138:main.c        ****                 else {
 139:main.c        ****                     state = COMMAND;
 489              		.loc 1 139 0
 490 015e 0026     		movs	r6, #0
 491 0160 4A4B     		ldr	r3, .L61+8
 492 0162 1E74     		strb	r6, [r3, #16]
 140:main.c        ****                     strcpy(line, "Parse Error: INVALID ARGUMENT");
 493              		.loc 1 140 0
 494 0164 6C46     		mov	r4, sp
 495 0166 574D     		ldr	r5, .L61+64
 496              	.LVL54:
 497 0168 0FCD     		ldmia	r5!, {r0, r1, r2, r3}
 498              	.LVL55:
 499 016a 0FC4     		stmia	r4!, {r0, r1, r2, r3}
 500 016c 95E80F00 		ldmia	r5, {r0, r1, r2, r3}
 501 0170 07C4     		stmia	r4!, {r0, r1, r2}
 502 0172 2380     		strh	r3, [r4]	@ movhi
 141:main.c        ****                     /*length = strlen(line);
 142:main.c        ****                     USB_LoadInEP(1, line, length);*/
 143:main.c        ****                     parsing = 0;
 503              		.loc 1 143 0
 504 0174 444B     		ldr	r3, .L61+4
 505 0176 1E70     		strb	r6, [r3]
 506 0178 71E0     		b	.L28
 507              	.LVL56:
 508              	.L32:
 509              	.LBE6:
 144:main.c        ****                 }
 145:main.c        ****                 break;}
 146:main.c        ****             case KEYWORD:{
 147:main.c        ****                 state = ARG2;
 510              		.loc 1 147 0
 511 017a 0322     		movs	r2, #3
 512 017c 434B     		ldr	r3, .L61+8
 513 017e 1A74     		strb	r2, [r3, #16]
 514              	.LVL57:
 515              	.LBB7:
 148:main.c        ****                 /*debug*/ for (int i=0;i<strlen(word);i++){LCD_PutChar(word[i]);}
 516              		.loc 1 148 0
 517 0180 0024     		movs	r4, #0
 518 0182 03E0     		b	.L40
 519              	.LVL58:
 520              	.L41:
 521              		.loc 1 148 0 is_stmt 0 discriminator 3
 522 0184 285D     		ldrb	r0, [r5, r4]	@ zero_extendqisi2
 523 0186 FFF7FEFF 		bl	LCD_PutChar
 524              	.LVL59:
 525 018a 0134     		adds	r4, r4, #1
 526              	.LVL60:
 527              	.L40:
 528              		.loc 1 148 0 discriminator 1
 529 018c 2846     		mov	r0, r5
 530 018e FFF7FEFF 		bl	strlen
 531              	.LVL61:
 532 0192 A042     		cmp	r0, r4
 533 0194 F6D8     		bhi	.L41
 534              	.LBE7:
ARM GAS  C:\Users\Walaa\AppData\Local\Temp\cc2qO8k8.s 			page 13


 149:main.c        ****                 if (strcmp(word, "spd") == 0)      cmd_keywrd = 's';
 535              		.loc 1 149 0 is_stmt 1
 536 0196 4C49     		ldr	r1, .L61+68
 537 0198 2846     		mov	r0, r5
 538 019a FFF7FEFF 		bl	strcmp
 539              	.LVL62:
 540 019e 18B9     		cbnz	r0, .L42
 541              		.loc 1 149 0 is_stmt 0 discriminator 1
 542 01a0 7322     		movs	r2, #115
 543 01a2 4A4B     		ldr	r3, .L61+72
 544 01a4 1A70     		strb	r2, [r3]
 545 01a6 5AE0     		b	.L28
 546              	.L42:
 150:main.c        ****                 else if (strcmp(word, "pos") == 0) cmd_keywrd = 'p';
 547              		.loc 1 150 0 is_stmt 1
 548 01a8 4949     		ldr	r1, .L61+76
 549 01aa 2846     		mov	r0, r5
 550 01ac FFF7FEFF 		bl	strcmp
 551              	.LVL63:
 552 01b0 18B9     		cbnz	r0, .L43
 553              		.loc 1 150 0 is_stmt 0 discriminator 1
 554 01b2 7022     		movs	r2, #112
 555 01b4 454B     		ldr	r3, .L61+72
 556 01b6 1A70     		strb	r2, [r3]
 557 01b8 51E0     		b	.L28
 558              	.L43:
 151:main.c        ****                 else if (strcmp(word, "stop") == 0) {
 559              		.loc 1 151 0 is_stmt 1
 560 01ba 4649     		ldr	r1, .L61+80
 561 01bc 2846     		mov	r0, r5
 562 01be FFF7FEFF 		bl	strcmp
 563              	.LVL64:
 564 01c2 48B9     		cbnz	r0, .L44
 152:main.c        ****                     cmd_keywrd = 's';
 565              		.loc 1 152 0
 566 01c4 7322     		movs	r2, #115
 567 01c6 414B     		ldr	r3, .L61+72
 568 01c8 1A70     		strb	r2, [r3]
 153:main.c        ****                     cmd_val = 0;
 569              		.loc 1 153 0
 570 01ca 0022     		movs	r2, #0
 571 01cc 424B     		ldr	r3, .L61+84
 572 01ce 1A70     		strb	r2, [r3]
 154:main.c        ****                     state = SND8051;
 573              		.loc 1 154 0
 574 01d0 0422     		movs	r2, #4
 575 01d2 2E4B     		ldr	r3, .L61+8
 576 01d4 1A74     		strb	r2, [r3, #16]
 577 01d6 42E0     		b	.L28
 578              	.L44:
 155:main.c        ****                 }
 156:main.c        ****                 else{
 157:main.c        ****                     state = COMMAND;
 579              		.loc 1 157 0
 580 01d8 0026     		movs	r6, #0
 581 01da 2C4B     		ldr	r3, .L61+8
 582 01dc 1E74     		strb	r6, [r3, #16]
ARM GAS  C:\Users\Walaa\AppData\Local\Temp\cc2qO8k8.s 			page 14


 158:main.c        ****                     //sprintf(line, "Parse Error: UNKNOWN KEYWORD: %s", word);
 159:main.c        ****                     strcpy(line, "Parse Error: UNKNOWN KEYWORD");
 583              		.loc 1 159 0
 584 01de 6C46     		mov	r4, sp
 585              	.LVL65:
 586 01e0 3E4D     		ldr	r5, .L61+88
 587              	.LVL66:
 588 01e2 0FCD     		ldmia	r5!, {r0, r1, r2, r3}
 589 01e4 0FC4     		stmia	r4!, {r0, r1, r2, r3}
 590 01e6 95E80F00 		ldmia	r5, {r0, r1, r2, r3}
 591 01ea 07C4     		stmia	r4!, {r0, r1, r2}
 592 01ec 2370     		strb	r3, [r4]
 160:main.c        ****                     /*length = strlen(line);
 161:main.c        ****                     USB_LoadInEP(1, line, length);*/
 162:main.c        ****                     parsing = 0;
 593              		.loc 1 162 0
 594 01ee 264B     		ldr	r3, .L61+4
 595 01f0 1E70     		strb	r6, [r3]
 596 01f2 34E0     		b	.L28
 597              	.LVL67:
 598              	.L33:
 163:main.c        ****                 }
 164:main.c        ****                 break;}
 165:main.c        ****             case ARG2:{
 166:main.c        ****                 /*int*/ number = abs(atoi(word));
 599              		.loc 1 166 0
 600 01f4 2846     		mov	r0, r5
 601              	.LVL68:
 602 01f6 FFF7FEFF 		bl	atoi
 603              	.LVL69:
 604 01fa 0028     		cmp	r0, #0
 605 01fc B8BF     		it	lt
 606 01fe 4042     		rsblt	r0, r0, #0
 607 0200 374B     		ldr	r3, .L61+92
 608 0202 1860     		str	r0, [r3]
 167:main.c        ****                 //check if the value is a number and if it is within bounds
 168:main.c        ****                 if (cmd == 'r' && number != 0 && word[0] != '-'){
 609              		.loc 1 168 0
 610 0204 294B     		ldr	r3, .L61+40
 611 0206 1B78     		ldrb	r3, [r3]	@ zero_extendqisi2
 612 0208 722B     		cmp	r3, #114
 613 020a 05D1     		bne	.L45
 614              		.loc 1 168 0 is_stmt 0 discriminator 1
 615 020c 20B1     		cbz	r0, .L45
 616              		.loc 1 168 0 discriminator 2
 617 020e 2A78     		ldrb	r2, [r5]	@ zero_extendqisi2
 618 0210 2D2A     		cmp	r2, #45
 619 0212 01D0     		beq	.L45
 169:main.c        ****                     state = EVAL;
 170:main.c        ****                     cmd_val = number;
 620              		.loc 1 170 0 is_stmt 1
 621 0214 304A     		ldr	r2, .L61+84
 622 0216 1070     		strb	r0, [r2]
 623              	.L45:
 171:main.c        ****                 }
 172:main.c        ****                 if (cmd == 'm' && number != 0 && number <= 100 ){/*&& 
 624              		.loc 1 172 0
ARM GAS  C:\Users\Walaa\AppData\Local\Temp\cc2qO8k8.s 			page 15


 625 0218 6D2B     		cmp	r3, #109
 626 021a 10D1     		bne	.L46
 627              		.loc 1 172 0 is_stmt 0 discriminator 1
 628 021c 78B1     		cbz	r0, .L46
 629              		.loc 1 172 0 discriminator 2
 630 021e 6428     		cmp	r0, #100
 631 0220 0DDC     		bgt	.L46
 173:main.c        ****                     ((strlen(word) <= 3 && word[0] != '-') || (strlen(word)<=4 && word[0] == '-')))
 174:main.c        ****                     //append to the line the correct sign
 175:main.c        ****                     state = SND8051;
 632              		.loc 1 175 0 is_stmt 1
 633 0222 0422     		movs	r2, #4
 634 0224 194B     		ldr	r3, .L61+8
 635 0226 1A74     		strb	r2, [r3, #16]
 176:main.c        ****                     cmd_sign = (word[0] == '-')? '-':'+';
 636              		.loc 1 176 0
 637 0228 2B78     		ldrb	r3, [r5]	@ zero_extendqisi2
 638 022a 2D2B     		cmp	r3, #45
 639 022c 01D1     		bne	.L59
 640 022e 2D22     		movs	r2, #45
 641 0230 00E0     		b	.L47
 642              	.L59:
 643 0232 2B22     		movs	r2, #43
 644              	.L47:
 645              		.loc 1 176 0 is_stmt 0 discriminator 4
 646 0234 2B4B     		ldr	r3, .L61+96
 647 0236 1A70     		strb	r2, [r3]
 177:main.c        ****                     cmd_val  = number;
 648              		.loc 1 177 0 is_stmt 1 discriminator 4
 649 0238 274B     		ldr	r3, .L61+84
 650 023a 1870     		strb	r0, [r3]
 651 023c 0FE0     		b	.L28
 652              	.L46:
 178:main.c        ****                 } else {
 179:main.c        ****                     /*THINGS ARE ENDING UP HERE WHEN THEY ARE VALID AND SHOULD BE FINE*/
 180:main.c        ****                     state = COMMAND;
 653              		.loc 1 180 0
 654 023e 0026     		movs	r6, #0
 655 0240 124B     		ldr	r3, .L61+8
 656 0242 1E74     		strb	r6, [r3, #16]
 181:main.c        ****                     strcpy(line, "Parse Error: INVALID VALUE");
 657              		.loc 1 181 0
 658 0244 6C46     		mov	r4, sp
 659 0246 284D     		ldr	r5, .L61+100
 660              	.LVL70:
 661 0248 0FCD     		ldmia	r5!, {r0, r1, r2, r3}
 662 024a 0FC4     		stmia	r4!, {r0, r1, r2, r3}
 663 024c 95E80700 		ldmia	r5, {r0, r1, r2}
 664 0250 03C4     		stmia	r4!, {r0, r1}
 665 0252 24F8022B 		strh	r2, [r4], #2	@ movhi
 666 0256 120C     		lsrs	r2, r2, #16
 667 0258 2270     		strb	r2, [r4]
 182:main.c        ****                     /*length = strlen(line);
 183:main.c        ****                     USB_LoadInEP(1, line, length);*/
 184:main.c        ****                     parsing = 0;
 668              		.loc 1 184 0
 669 025a 0B4B     		ldr	r3, .L61+4
ARM GAS  C:\Users\Walaa\AppData\Local\Temp\cc2qO8k8.s 			page 16


 670 025c 1E70     		strb	r6, [r3]
 671              	.L28:
 185:main.c        ****                 }
 186:main.c        ****                 break;}
 187:main.c        ****             }
 188:main.c        ****             word = strtok(NULL, " \n\r");
 672              		.loc 1 188 0
 673 025e 1149     		ldr	r1, .L61+32
 674 0260 0020     		movs	r0, #0
 675 0262 FFF7FEFF 		bl	strtok
 676              	.LVL71:
 677 0266 0546     		mov	r5, r0
 678              	.LVL72:
 679              	.L27:
 113:main.c        ****             switch(state){
 680              		.loc 1 113 0
 681 0268 25B1     		cbz	r5, .L48
 113:main.c        ****             switch(state){
 682              		.loc 1 113 0 is_stmt 0 discriminator 1
 683 026a 074B     		ldr	r3, .L61+4
 684 026c 1B78     		ldrb	r3, [r3]	@ zero_extendqisi2
 685 026e 002B     		cmp	r3, #0
 686 0270 7FF426AF 		bne	.L49
 687              	.L48:
 189:main.c        ****         }
 190:main.c        ****         
 191:main.c        ****         //once done parsing a line, start processing and forwarding the data
 192:main.c        ****         switch (state){
 688              		.loc 1 192 0 is_stmt 1
 689 0274 054B     		ldr	r3, .L61+8
 690 0276 1B7C     		ldrb	r3, [r3, #16]	@ zero_extendqisi2
 691 0278 042B     		cmp	r3, #4
 692 027a 37D0     		beq	.L51
 693 027c 052B     		cmp	r3, #5
 694 027e 00F09D80 		beq	.L52
 695 0282 C4E0     		b	.L50
 696              	.L62:
 697              		.align	2
 698              	.L61:
 699 0284 00000000 		.word	RX_INT
 700 0288 00000000 		.word	parsing
 701 028c 00000000 		.word	.LANCHOR0
 702 0290 00000000 		.word	receiving
 703 0294 00000000 		.word	length
 704 0298 00000000 		.word	buffer
 705 029c 00000000 		.word	current_line_num
 706 02a0 00000000 		.word	lines
 707 02a4 8C000000 		.word	.LC6
 708 02a8 90000000 		.word	.LC7
 709 02ac 00000000 		.word	cmd
 710 02b0 98000000 		.word	.LC8
 711 02b4 A0000000 		.word	.LC9
 712 02b8 A8000000 		.word	.LC10
 713 02bc 00000000 		.word	cmd_motornum
 714 02c0 00000000 		.word	cmd_eval_val
 715 02c4 C8000000 		.word	.LC11
 716 02c8 E8000000 		.word	.LC12
ARM GAS  C:\Users\Walaa\AppData\Local\Temp\cc2qO8k8.s 			page 17


 717 02cc 00000000 		.word	cmd_keywrd
 718 02d0 EC000000 		.word	.LC13
 719 02d4 F0000000 		.word	.LC14
 720 02d8 00000000 		.word	cmd_val
 721 02dc F8000000 		.word	.LC15
 722 02e0 00000000 		.word	number
 723 02e4 00000000 		.word	cmd_sign
 724 02e8 18010000 		.word	.LC16
 725              	.L51:
 726              	.LBB8:
 193:main.c        ****         case SND8051:{
 194:main.c        ****                 //======= INSTRUCTION BYTE ========
 195:main.c        ****                 //set the highest order bit to 1 to represent that this is the inst byte
 196:main.c        ****                 inst_byte_out = 1;   inst_byte_out = inst_byte_out << 3;
 197:main.c        ****                 //send over one bit that communicates whether to control position or speed
 198:main.c        ****                 // 1 is speed and 0 is position control and update byte out to include the keyword
 199:main.c        ****                 inst_byte_out += (cmd_keywrd == 's');    inst_byte_out = inst_byte_out << 1;
 727              		.loc 1 199 0
 728 02ec 4D4B     		ldr	r3, .L63
 729 02ee 1B78     		ldrb	r3, [r3]	@ zero_extendqisi2
 730 02f0 732B     		cmp	r3, #115
 731 02f2 14BF     		ite	ne
 732 02f4 0023     		movne	r3, #0
 733 02f6 0123     		moveq	r3, #1
 734 02f8 0833     		adds	r3, r3, #8
 735 02fa DBB2     		uxtb	r3, r3
 736 02fc 5B00     		lsls	r3, r3, #1
 737 02fe DBB2     		uxtb	r3, r3
 200:main.c        ****                 //we need to also send over the direction of motion if we are controlling speed
 201:main.c        ****                 inst_byte_out += (cmd_sign == '+');      inst_byte_out = inst_byte_out << 1;
 738              		.loc 1 201 0
 739 0300 494A     		ldr	r2, .L63+4
 740 0302 1278     		ldrb	r2, [r2]	@ zero_extendqisi2
 741 0304 2B2A     		cmp	r2, #43
 742 0306 08BF     		it	eq
 743 0308 0133     		addeq	r3, r3, #1
 744 030a DBB2     		uxtb	r3, r3
 745 030c 5B00     		lsls	r3, r3, #1
 746 030e DBB2     		uxtb	r3, r3
 202:main.c        ****                 //convert the motor number to binary and update the byte_out to include the motor n
 203:main.c        ****                 uint8 motorNum = cmd_motornum-1;        //to zero-index
 747              		.loc 1 203 0
 748 0310 464A     		ldr	r2, .L63+8
 749 0312 1278     		ldrb	r2, [r2]	@ zero_extendqisi2
 750 0314 013A     		subs	r2, r2, #1
 751 0316 D2B2     		uxtb	r2, r2
 752              	.LVL73:
 204:main.c        ****                 inst_byte_out += (motorNum >> 2) & 1;             inst_byte_out = inst_byte_out << 
 753              		.loc 1 204 0
 754 0318 C2F38001 		ubfx	r1, r2, #2, #1
 755 031c 0B44     		add	r3, r3, r1
 756 031e DBB2     		uxtb	r3, r3
 757 0320 5B00     		lsls	r3, r3, #1
 758 0322 D9B2     		uxtb	r1, r3
 205:main.c        ****                 inst_byte_out += (motorNum >> 1) & 1;             inst_byte_out = inst_byte_out << 
 759              		.loc 1 205 0
 760 0324 C2F34003 		ubfx	r3, r2, #1, #1
ARM GAS  C:\Users\Walaa\AppData\Local\Temp\cc2qO8k8.s 			page 18


 761 0328 0B44     		add	r3, r3, r1
 762 032a DBB2     		uxtb	r3, r3
 763 032c 5B00     		lsls	r3, r3, #1
 764 032e DBB2     		uxtb	r3, r3
 206:main.c        ****                 inst_byte_out += (motorNum >> 0) & 1;
 765              		.loc 1 206 0
 766 0330 02F00102 		and	r2, r2, #1
 767              	.LVL74:
 768 0334 1344     		add	r3, r3, r2
 769 0336 3E4A     		ldr	r2, .L63+12
 770 0338 1370     		strb	r3, [r2]
 207:main.c        ****                 
 208:main.c        ****                 //======= VALUE BYTE ========
 209:main.c        ****                 //set the highest order bit to 0 to represent that this is the value byte
 210:main.c        ****                 val_byte_out = 0;   
 771              		.loc 1 210 0
 772 033a 0022     		movs	r2, #0
 773 033c 3D4B     		ldr	r3, .L63+16
 774 033e 1A70     		strb	r2, [r3]
 211:main.c        ****                 //convert the desired value of speed or position to binary
 212:main.c        ****                 uint8 value = cmd_val;
 775              		.loc 1 212 0
 776 0340 3D4B     		ldr	r3, .L63+20
 777 0342 1C78     		ldrb	r4, [r3]	@ zero_extendqisi2
 778              	.LVL75:
 779              	.LBB9:
 213:main.c        ****                 for (int i = 6; i>=0; i--){
 780              		.loc 1 213 0
 781 0344 0621     		movs	r1, #6
 782 0346 0AE0     		b	.L53
 783              	.LVL76:
 784              	.L54:
 214:main.c        ****                     val_byte_out = val_byte_out << 1;
 785              		.loc 1 214 0 discriminator 3
 786 0348 3A48     		ldr	r0, .L63+16
 787 034a 0378     		ldrb	r3, [r0]	@ zero_extendqisi2
 788 034c 5B00     		lsls	r3, r3, #1
 789 034e DAB2     		uxtb	r2, r3
 215:main.c        ****                     val_byte_out += (value >> i) & 1;
 790              		.loc 1 215 0 discriminator 3
 791 0350 44FA01F3 		asr	r3, r4, r1
 792 0354 03F00103 		and	r3, r3, #1
 793 0358 1344     		add	r3, r3, r2
 794 035a 0370     		strb	r3, [r0]
 213:main.c        ****                 for (int i = 6; i>=0; i--){
 795              		.loc 1 213 0 discriminator 3
 796 035c 0139     		subs	r1, r1, #1
 797              	.LVL77:
 798              	.L53:
 213:main.c        ****                 for (int i = 6; i>=0; i--){
 799              		.loc 1 213 0 is_stmt 0 discriminator 1
 800 035e 0029     		cmp	r1, #0
 801 0360 F2DA     		bge	.L54
 802              	.LBE9:
 216:main.c        ****                 }
 217:main.c        **** 
 218:main.c        ****                 strcpy(line, "Success! Data being sent right over.");
ARM GAS  C:\Users\Walaa\AppData\Local\Temp\cc2qO8k8.s 			page 19


 803              		.loc 1 218 0 is_stmt 1
 804 0362 6C46     		mov	r4, sp
 805              	.LVL78:
 806 0364 354D     		ldr	r5, .L63+24
 807              	.LVL79:
 808 0366 0FCD     		ldmia	r5!, {r0, r1, r2, r3}
 809              	.LVL80:
 810 0368 0FC4     		stmia	r4!, {r0, r1, r2, r3}
 811 036a 0FCD     		ldmia	r5!, {r0, r1, r2, r3}
 812 036c 0FC4     		stmia	r4!, {r0, r1, r2, r3}
 813 036e 95E80300 		ldmia	r5, {r0, r1}
 814 0372 44F8040B 		str	r0, [r4], #4
 815 0376 2170     		strb	r1, [r4]
 219:main.c        ****                 //length = strlen(line);
 220:main.c        ****                 //Communicate this command byte to the R31JP
 221:main.c        ****                 UART_PutChar(val_byte_out);
 816              		.loc 1 221 0
 817 0378 2E4B     		ldr	r3, .L63+16
 818 037a 1878     		ldrb	r0, [r3]	@ zero_extendqisi2
 819 037c FFF7FEFF 		bl	UART_PutChar
 820              	.LVL81:
 222:main.c        ****                 CyDelay(100);
 821              		.loc 1 222 0
 822 0380 6420     		movs	r0, #100
 823 0382 FFF7FEFF 		bl	CyDelay
 824              	.LVL82:
 223:main.c        ****                 UART_PutChar(inst_byte_out);
 825              		.loc 1 223 0
 826 0386 2A4B     		ldr	r3, .L63+12
 827 0388 1878     		ldrb	r0, [r3]	@ zero_extendqisi2
 828 038a FFF7FEFF 		bl	UART_PutChar
 829              	.LVL83:
 224:main.c        ****                 //in the case of repeats, make the appropriate
 225:main.c        ****                 current_line_num ++;
 830              		.loc 1 225 0
 831 038e 2C4A     		ldr	r2, .L63+28
 832 0390 1368     		ldr	r3, [r2]
 833 0392 0133     		adds	r3, r3, #1
 834 0394 1360     		str	r3, [r2]
 226:main.c        ****                 if (repeats && current_line_num == num_lines){ 
 835              		.loc 1 226 0
 836 0396 2B4A     		ldr	r2, .L63+32
 837 0398 D268     		ldr	r2, [r2, #12]
 838 039a 5AB1     		cbz	r2, .L55
 839              		.loc 1 226 0 is_stmt 0 discriminator 1
 840 039c 2A49     		ldr	r1, .L63+36
 841 039e 0968     		ldr	r1, [r1]
 842 03a0 8B42     		cmp	r3, r1
 843 03a2 07D1     		bne	.L55
 227:main.c        ****                     current_line_num = 0;
 844              		.loc 1 227 0 is_stmt 1
 845 03a4 0023     		movs	r3, #0
 846 03a6 2649     		ldr	r1, .L63+28
 847 03a8 0B60     		str	r3, [r1]
 228:main.c        ****                     repeats --;
 848              		.loc 1 228 0
 849 03aa 013A     		subs	r2, r2, #1
ARM GAS  C:\Users\Walaa\AppData\Local\Temp\cc2qO8k8.s 			page 20


 850 03ac 2549     		ldr	r1, .L63+32
 851 03ae CA60     		str	r2, [r1, #12]
 229:main.c        ****                     receiving = 0;
 852              		.loc 1 229 0
 853 03b0 264A     		ldr	r2, .L63+40
 854 03b2 1370     		strb	r3, [r2]
 855              	.L55:
 230:main.c        ****                 }
 231:main.c        ****                 //*debug*/ for (int i=0;i<strlen(byte_to_binary(val_byte_out));i++){LCD_PutChar(byt
 232:main.c        ****                 //update the state of the state machine to accept more commands
 233:main.c        ****                 state = COMMAND;
 856              		.loc 1 233 0
 857 03b4 0022     		movs	r2, #0
 858 03b6 234B     		ldr	r3, .L63+32
 859 03b8 1A74     		strb	r2, [r3, #16]
 234:main.c        ****                 break;}
 860              		.loc 1 234 0
 861 03ba 28E0     		b	.L50
 862              	.LVL84:
 863              	.L52:
 864              	.LBE8:
 235:main.c        ****             case EVAL:{
 236:main.c        ****                 //here we need to evaluate delays and repeats
 237:main.c        ****                 if (cmd =='d') CyDelay(cmd_eval_val);
 865              		.loc 1 237 0
 866 03bc 244B     		ldr	r3, .L63+44
 867 03be 1B78     		ldrb	r3, [r3]	@ zero_extendqisi2
 868 03c0 642B     		cmp	r3, #100
 869 03c2 04D1     		bne	.L56
 870              		.loc 1 237 0 is_stmt 0 discriminator 1
 871 03c4 234B     		ldr	r3, .L63+48
 872 03c6 1868     		ldr	r0, [r3]
 873              	.LVL85:
 874 03c8 FFF7FEFF 		bl	CyDelay
 875              	.LVL86:
 876 03cc 0FE0     		b	.L57
 877              	.LVL87:
 878              	.L56:
 238:main.c        ****                 else if (cmd == 'r') {
 879              		.loc 1 238 0 is_stmt 1
 880 03ce 722B     		cmp	r3, #114
 881 03d0 0DD1     		bne	.L57
 239:main.c        ****                     /*DEAL WITH REPEATS HERE ::TODO*/
 240:main.c        ****                     repeats = cmd_eval_val;
 882              		.loc 1 240 0
 883 03d2 204B     		ldr	r3, .L63+48
 884 03d4 1A68     		ldr	r2, [r3]
 885 03d6 1B4B     		ldr	r3, .L63+32
 886 03d8 DA60     		str	r2, [r3, #12]
 241:main.c        ****                     num_lines = cmd_val;
 887              		.loc 1 241 0
 888 03da 174B     		ldr	r3, .L63+20
 889 03dc 1A78     		ldrb	r2, [r3]	@ zero_extendqisi2
 890 03de 1A4B     		ldr	r3, .L63+36
 891 03e0 1A60     		str	r2, [r3]
 242:main.c        ****                     current_line_num = 0;
 892              		.loc 1 242 0
ARM GAS  C:\Users\Walaa\AppData\Local\Temp\cc2qO8k8.s 			page 21


 893 03e2 0022     		movs	r2, #0
 894 03e4 164B     		ldr	r3, .L63+28
 895 03e6 1A60     		str	r2, [r3]
 243:main.c        ****                     receiving = 1;
 896              		.loc 1 243 0
 897 03e8 0122     		movs	r2, #1
 898 03ea 184B     		ldr	r3, .L63+40
 899 03ec 1A70     		strb	r2, [r3]
 900              	.LVL88:
 901              	.L57:
 244:main.c        ****                 }
 245:main.c        ****                 state = COMMAND;
 902              		.loc 1 245 0
 903 03ee 0022     		movs	r2, #0
 904 03f0 144B     		ldr	r3, .L63+32
 905 03f2 1A74     		strb	r2, [r3, #16]
 246:main.c        ****                 strcpy(line, "Success! This command was evaluated in the PSoC.\n\r");
 906              		.loc 1 246 0
 907 03f4 6C46     		mov	r4, sp
 908 03f6 184D     		ldr	r5, .L63+52
 909              	.LVL89:
 910 03f8 0FCD     		ldmia	r5!, {r0, r1, r2, r3}
 911 03fa 0FC4     		stmia	r4!, {r0, r1, r2, r3}
 912 03fc 0FCD     		ldmia	r5!, {r0, r1, r2, r3}
 913 03fe 0FC4     		stmia	r4!, {r0, r1, r2, r3}
 914 0400 0FCD     		ldmia	r5!, {r0, r1, r2, r3}
 915 0402 0FC4     		stmia	r4!, {r0, r1, r2, r3}
 916 0404 2B68     		ldr	r3, [r5]
 917 0406 24F8023B 		strh	r3, [r4], #2	@ movhi
 918 040a 1B0C     		lsrs	r3, r3, #16
 919 040c 2370     		strb	r3, [r4]
 920              	.L50:
 247:main.c        ****                 break;}
 248:main.c        ****             }
 249:main.c        ****         length = strlen(line);
 921              		.loc 1 249 0
 922 040e 6846     		mov	r0, sp
 923 0410 FFF7FEFF 		bl	strlen
 924              	.LVL90:
 925 0414 82B2     		uxth	r2, r0
 926 0416 114B     		ldr	r3, .L63+56
 927 0418 1A80     		strh	r2, [r3]	@ movhi
 250:main.c        ****         USB_LoadInEP(1, line, length);                    // Echo the data back into the buffer
 928              		.loc 1 250 0
 929 041a 6946     		mov	r1, sp
 930 041c 0120     		movs	r0, #1
 931 041e FFF7FEFF 		bl	USB_LoadInEP
 932              	.LVL91:
 933              	.LBE4:
 251:main.c        ****     
 252:main.c        ****     }
 934              		.loc 1 252 0
 935 0422 08E6     		b	.L58
 936              	.L64:
 937              		.align	2
 938              	.L63:
 939 0424 00000000 		.word	cmd_keywrd
ARM GAS  C:\Users\Walaa\AppData\Local\Temp\cc2qO8k8.s 			page 22


 940 0428 00000000 		.word	cmd_sign
 941 042c 00000000 		.word	cmd_motornum
 942 0430 00000000 		.word	inst_byte_out
 943 0434 00000000 		.word	val_byte_out
 944 0438 00000000 		.word	cmd_val
 945 043c 34010000 		.word	.LC17
 946 0440 00000000 		.word	current_line_num
 947 0444 00000000 		.word	.LANCHOR0
 948 0448 00000000 		.word	num_lines
 949 044c 00000000 		.word	receiving
 950 0450 00000000 		.word	cmd
 951 0454 00000000 		.word	cmd_eval_val
 952 0458 5C010000 		.word	.LC18
 953 045c 00000000 		.word	length
 954              		.cfi_endproc
 955              	.LFE65:
 956              		.size	main, .-main
 957              		.global	state
 958              		.comm	cmd_eval_val,4,4
 959              		.comm	lines,5120,4
 960              		.comm	parsing,1,1
 961              		.comm	receiving,1,1
 962              		.comm	current_line_num,4,4
 963              		.comm	num_lines,4,4
 964              		.global	repeats
 965              		.comm	number,4,4
 966              		.comm	length,2,2
 967              		.comm	val_byte_out,1,1
 968              		.comm	inst_byte_out,1,1
 969              		.comm	cmd_val,1,1
 970              		.comm	cmd_sign,1,1
 971              		.comm	cmd_keywrd,1,1
 972              		.comm	cmd_motornum,1,1
 973              		.comm	cmd,1,1
 974              		.comm	buffer,512,4
 975              		.section	.rodata.str1.4,"aMS",%progbits,1
 976              		.align	2
 977              	.LC0:
 978 0000 3100     		.ascii	"1\000"
 979 0002 0000     		.space	2
 980              	.LC1:
 981 0004 3000     		.ascii	"0\000"
 982 0006 0000     		.space	2
 983              	.LC2:
 984 0008 504F5349 		.ascii	"POSITION CONTROL UNAVAILABLE\012\015\000"
 984      54494F4E 
 984      20434F4E 
 984      54524F4C 
 984      20554E41 
 985 0027 00       		.space	1
 986              	.LC3:
 987 0028 53504545 		.ascii	"SPEED CONTROL UNAVAILABLE\012\015\000"
 987      4420434F 
 987      4E54524F 
 987      4C20554E 
 987      41564149 
 988              	.LC4:
ARM GAS  C:\Users\Walaa\AppData\Local\Temp\cc2qO8k8.s 			page 23


 989 0044 4E4F2053 		.ascii	"NO SUCH MOTOR ERROR\012\015\000"
 989      55434820 
 989      4D4F544F 
 989      52204552 
 989      524F520A 
 990 005a 0000     		.space	2
 991              	.LC5:
 992 005c 53756363 		.ascii	"Success! data was delivered to the R31JP, %d\000"
 992      65737321 
 992      20646174 
 992      61207761 
 992      73206465 
 993 0089 000000   		.space	3
 994              	.LC6:
 995 008c 200A0D00 		.ascii	" \012\015\000"
 996              	.LC7:
 997 0090 6D6F746F 		.ascii	"motor\000"
 997      7200
 998 0096 0000     		.space	2
 999              	.LC8:
 1000 0098 72657065 		.ascii	"repeat\000"
 1000      617400
 1001 009f 00       		.space	1
 1002              	.LC9:
 1003 00a0 64656C61 		.ascii	"delay\000"
 1003      7900
 1004 00a6 0000     		.space	2
 1005              	.LC10:
 1006 00a8 50617273 		.ascii	"Parse Error: UNKNOWN COMMAND\000"
 1006      65204572 
 1006      726F723A 
 1006      20554E4B 
 1006      4E4F574E 
 1007 00c5 000000   		.space	3
 1008              	.LC11:
 1009 00c8 50617273 		.ascii	"Parse Error: INVALID ARGUMENT\000"
 1009      65204572 
 1009      726F723A 
 1009      20494E56 
 1009      414C4944 
 1010 00e6 0000     		.space	2
 1011              	.LC12:
 1012 00e8 73706400 		.ascii	"spd\000"
 1013              	.LC13:
 1014 00ec 706F7300 		.ascii	"pos\000"
 1015              	.LC14:
 1016 00f0 73746F70 		.ascii	"stop\000"
 1016      00
 1017 00f5 000000   		.space	3
 1018              	.LC15:
 1019 00f8 50617273 		.ascii	"Parse Error: UNKNOWN KEYWORD\000"
 1019      65204572 
 1019      726F723A 
 1019      20554E4B 
 1019      4E4F574E 
 1020 0115 000000   		.space	3
 1021              	.LC16:
ARM GAS  C:\Users\Walaa\AppData\Local\Temp\cc2qO8k8.s 			page 24


 1022 0118 50617273 		.ascii	"Parse Error: INVALID VALUE\000"
 1022      65204572 
 1022      726F723A 
 1022      20494E56 
 1022      414C4944 
 1023 0133 00       		.space	1
 1024              	.LC17:
 1025 0134 53756363 		.ascii	"Success! Data being sent right over.\000"
 1025      65737321 
 1025      20446174 
 1025      61206265 
 1025      696E6720 
 1026 0159 000000   		.space	3
 1027              	.LC18:
 1028 015c 53756363 		.ascii	"Success! This command was evaluated in the PSoC.\012"
 1028      65737321 
 1028      20546869 
 1028      7320636F 
 1028      6D6D616E 
 1029 018d 0D00     		.ascii	"\015\000"
 1030              		.bss
 1031              		.align	2
 1032              		.set	.LANCHOR0,. + 0
 1033              		.type	b.6602, %object
 1034              		.size	b.6602, 9
 1035              	b.6602:
 1036 0000 00000000 		.space	9
 1036      00000000 
 1036      00
 1037 0009 000000   		.space	3
 1038              		.type	repeats, %object
 1039              		.size	repeats, 4
 1040              	repeats:
 1041 000c 00000000 		.space	4
 1042              		.type	state, %object
 1043              		.size	state, 1
 1044              	state:
 1045 0010 00       		.space	1
 1046              		.text
 1047              	.Letext0:
 1048              		.file 2 "c:\\program files (x86)\\cypress\\psoc creator\\4.2\\psoc creator\\import\\gnu\\arm\\5.4.
 1049              		.file 3 "c:\\program files (x86)\\cypress\\psoc creator\\4.2\\psoc creator\\import\\gnu\\arm\\5.4.
 1050              		.file 4 "Generated_Source\\PSoC5/cytypes.h"
 1051              		.file 5 "Generated_Source\\PSoC5/core_cm3.h"
 1052              		.file 6 "Generated_Source\\PSoC5/LCD.h"
 1053              		.file 7 "c:\\program files (x86)\\cypress\\psoc creator\\4.2\\psoc creator\\import\\gnu\\arm\\5.4.
 1054              		.file 8 "<built-in>"
 1055              		.file 9 "Generated_Source\\PSoC5/UART.h"
 1056              		.file 10 "Generated_Source\\PSoC5/USB.h"
 1057              		.file 11 "c:\\program files (x86)\\cypress\\psoc creator\\4.2\\psoc creator\\import\\gnu\\arm\\5.4
 1058              		.file 12 "Generated_Source\\PSoC5/CyLib.h"
 1059              		.file 13 "Generated_Source\\PSoC5/rx_int.h"